target datalayout = "e-m:e-p270:32:32-p271:32:32-p272:64:64-i64:64-i128:128-f80:128-n8:16:32:64-S128"
target triple = "x86_64-unknown-linux-gnu"

%struct.BlockDriverState = type { i32, i8, i8, i8, i8, i8, ptr, ptr, ptr, %struct.anon, i8, [4096 x i8], [4096 x i8], [4096 x i8], [16 x i8], ptr, [4096 x i8], %struct.BlockLimits, i32, i32, i32, i32, [32 x i8], %union.anon, %union.anon.0, %union.anon.1, i32, [16 x %struct.anon.2], ptr, %struct.anon.3, ptr, ptr, %struct.anon.4, ptr, ptr, i32, ptr, i64, i64, %struct.QemuMutex, %struct.anon.5, %struct.Stat64, i32, i32, i32, i32, i32, i32, %struct.QemuMutex, %struct.anon.6, %struct.CoQueue, i8, i32, i8, %struct.CoMutex, ptr, ptr }
%struct.anon = type { ptr }
%struct.BlockLimits = type { i32, i64, i32, i64, i32, i32, i32, i64, i32, i64, i64, i32, i8, i32, i32, i32, i32, i32, i32, i32 }
%union.anon = type { %struct.QTailQLink }
%struct.QTailQLink = type { ptr, ptr }
%union.anon.0 = type { %struct.QTailQLink }
%union.anon.1 = type { %struct.QTailQLink }
%struct.anon.2 = type { ptr }
%struct.anon.3 = type { ptr }
%struct.anon.4 = type { ptr }
%struct.anon.5 = type { ptr }
%struct.Stat64 = type { i64 }
%struct.QemuMutex = type { %union.pthread_mutex_t, i8 }
%union.pthread_mutex_t = type { %struct.__pthread_mutex_s }
%struct.__pthread_mutex_s = type { i32, i32, i32, i32, i32, i16, i16, %struct.__pthread_internal_list }
%struct.__pthread_internal_list = type { ptr, ptr }
%struct.anon.6 = type { ptr }
%struct.CoQueue = type { %struct.anon.7 }
%struct.anon.7 = type { ptr, ptr }
%struct.CoMutex = type { i32, ptr, %struct.anon.8, %struct.anon.8, i32, i32, ptr }
%struct.anon.8 = type { ptr }
%struct.BDRVStateCOR = type { ptr, i8 }
%struct.BdrvChild = type { ptr, ptr, ptr, i32, ptr, i64, i64, i8, i8, %struct.anon.10, %struct.anon.11 }
%struct.anon.10 = type { ptr, ptr }
%struct.anon.11 = type { ptr, ptr }

; Function Attrs: nounwind sspstrong uwtable
define internal i32 @cor_co_preadv_part(ptr noundef %bs, i64 noundef %offset, i64 noundef %bytes, ptr noundef %qiov, i64 noundef %qiov_offset, i32 noundef %flags) #0 {
entry:
  %retval = alloca i32, align 4
  %bs.addr = alloca ptr, align 8
  %offset.addr = alloca i64, align 8
  %bytes.addr = alloca i64, align 8
  %qiov.addr = alloca ptr, align 8
  %qiov_offset.addr = alloca i64, align 8
  %flags.addr = alloca i32, align 4
  %n = alloca i64, align 8
  %local_flags = alloca i32, align 4
  %ret = alloca i32, align 4
  %state = alloca ptr, align 8
  store ptr %bs, ptr %bs.addr, align 8
  store i64 %offset, ptr %offset.addr, align 8
  store i64 %bytes, ptr %bytes.addr, align 8
  store ptr %qiov, ptr %qiov.addr, align 8
  store i64 %qiov_offset, ptr %qiov_offset.addr, align 8
  store i32 %flags, ptr %flags.addr, align 4
  %0 = load ptr, ptr %bs.addr, align 8
  %opaque = getelementptr inbounds %struct.BlockDriverState, ptr %0, i32 0, i32 7
  %1 = load ptr, ptr %opaque, align 8
  store ptr %1, ptr %state, align 8
  %2 = load ptr, ptr %state, align 8
  %bottom_bs = getelementptr inbounds %struct.BDRVStateCOR, ptr %2, i32 0, i32 0
  %3 = load ptr, ptr %bottom_bs, align 8
  %tobool = icmp ne ptr %3, null
  br i1 %tobool, label %if.end, label %if.then

if.then:                                          ; preds = %entry
  %4 = load ptr, ptr %bs.addr, align 8
  %file = getelementptr inbounds %struct.BlockDriverState, ptr %4, i32 0, i32 31
  %5 = load ptr, ptr %file, align 8
  %6 = load i64, ptr %offset.addr, align 8
  %7 = load i64, ptr %bytes.addr, align 8
  %8 = load ptr, ptr %qiov.addr, align 8
  %9 = load i64, ptr %qiov_offset.addr, align 8
  %10 = load i32, ptr %flags.addr, align 4
  %or = or i32 %10, 1
  %call = call i32 @bdrv_co_preadv_part(ptr noundef %5, i64 noundef %6, i64 noundef %7, ptr noundef %8, i64 noundef %9, i32 noundef %or)
  store i32 %call, ptr %retval, align 4
  br label %return

if.end:                                           ; preds = %entry
  br label %while.cond

while.cond:                                       ; preds = %if.end27, %if.end
  %11 = load i64, ptr %bytes.addr, align 8
  %tobool1 = icmp ne i64 %11, 0
  br i1 %tobool1, label %while.body, label %while.end

while.body:                                       ; preds = %while.cond
  %12 = load i32, ptr %flags.addr, align 4
  store i32 %12, ptr %local_flags, align 4
  %13 = load ptr, ptr %bs.addr, align 8
  %file2 = getelementptr inbounds %struct.BlockDriverState, ptr %13, i32 0, i32 31
  %14 = load ptr, ptr %file2, align 8
  %bs3 = getelementptr inbounds %struct.BdrvChild, ptr %14, i32 0, i32 0
  %15 = load ptr, ptr %bs3, align 8
  %16 = load i64, ptr %offset.addr, align 8
  %17 = load i64, ptr %bytes.addr, align 8
  %call4 = call i32 @bdrv_co_is_allocated(ptr noundef %15, i64 noundef %16, i64 noundef %17, ptr noundef %n)
  store i32 %call4, ptr %ret, align 4
  %18 = load i32, ptr %ret, align 4
  %cmp = icmp sle i32 %18, 0
  br i1 %cmp, label %if.then5, label %if.end19

if.then5:                                         ; preds = %while.body
  %19 = load ptr, ptr %bs.addr, align 8
  %file6 = getelementptr inbounds %struct.BlockDriverState, ptr %19, i32 0, i32 31
  %20 = load ptr, ptr %file6, align 8
  %bs7 = getelementptr inbounds %struct.BdrvChild, ptr %20, i32 0, i32 0
  %21 = load ptr, ptr %bs7, align 8
  %call8 = call ptr @bdrv_backing_chain_next(ptr noundef %21)
  %22 = load ptr, ptr %state, align 8
  %bottom_bs9 = getelementptr inbounds %struct.BDRVStateCOR, ptr %22, i32 0, i32 0
  %23 = load ptr, ptr %bottom_bs9, align 8
  %24 = load i64, ptr %offset.addr, align 8
  %25 = load i64, ptr %n, align 8
  %call10 = call i32 @bdrv_co_is_allocated_above(ptr noundef %call8, ptr noundef %23, i1 noundef zeroext true, i64 noundef %24, i64 noundef %25, ptr noundef %n)
  store i32 %call10, ptr %ret, align 4
  %26 = load i32, ptr %ret, align 4
  %cmp11 = icmp sgt i32 %26, 0
  br i1 %cmp11, label %if.then13, label %lor.lhs.false

lor.lhs.false:                                    ; preds = %if.then5
  %27 = load i32, ptr %ret, align 4
  %cmp12 = icmp slt i32 %27, 0
  br i1 %cmp12, label %if.then13, label %if.end15

if.then13:                                        ; preds = %lor.lhs.false, %if.then5
  %28 = load i32, ptr %local_flags, align 4
  %or14 = or i32 %28, 1
  store i32 %or14, ptr %local_flags, align 4
  br label %if.end15

if.end15:                                         ; preds = %if.then13, %lor.lhs.false
  %29 = load i64, ptr %n, align 8
  %cmp16 = icmp eq i64 %29, 0
  br i1 %cmp16, label %if.then17, label %if.end18

if.then17:                                        ; preds = %if.end15
  br label %while.end

if.end18:                                         ; preds = %if.end15
  br label %if.end19

if.end19:                                         ; preds = %if.end18, %while.body
  %30 = load i32, ptr %local_flags, align 4
  %and = and i32 %30, 513
  %cmp20 = icmp ne i32 %and, 512
  br i1 %cmp20, label %if.then21, label %if.end27

if.then21:                                        ; preds = %if.end19
  %31 = load ptr, ptr %bs.addr, align 8
  %file22 = getelementptr inbounds %struct.BlockDriverState, ptr %31, i32 0, i32 31
  %32 = load ptr, ptr %file22, align 8
  %33 = load i64, ptr %offset.addr, align 8
  %34 = load i64, ptr %n, align 8
  %35 = load ptr, ptr %qiov.addr, align 8
  %36 = load i64, ptr %qiov_offset.addr, align 8
  %37 = load i32, ptr %local_flags, align 4
  %call23 = call i32 @bdrv_co_preadv_part(ptr noundef %32, i64 noundef %33, i64 noundef %34, ptr noundef %35, i64 noundef %36, i32 noundef %37)
  store i32 %call23, ptr %ret, align 4
  %38 = load i32, ptr %ret, align 4
  %cmp24 = icmp slt i32 %38, 0
  br i1 %cmp24, label %if.then25, label %if.end26

if.then25:                                        ; preds = %if.then21
  %39 = load i32, ptr %ret, align 4
  store i32 %39, ptr %retval, align 4
  br label %return

if.end26:                                         ; preds = %if.then21
  br label %if.end27

if.end27:                                         ; preds = %if.end26, %if.end19
  %40 = load i64, ptr %n, align 8
  %41 = load i64, ptr %offset.addr, align 8
  %add = add i64 %41, %40
  store i64 %add, ptr %offset.addr, align 8
  %42 = load i64, ptr %n, align 8
  %43 = load i64, ptr %qiov_offset.addr, align 8
  %add28 = add i64 %43, %42
  store i64 %add28, ptr %qiov_offset.addr, align 8
  %44 = load i64, ptr %n, align 8
  %45 = load i64, ptr %bytes.addr, align 8
  %sub = sub i64 %45, %44
  store i64 %sub, ptr %bytes.addr, align 8
  br label %while.cond, !llvm.loop !5

while.end:                                        ; preds = %if.then17, %while.cond
  store i32 0, ptr %retval, align 4
  br label %return

return:                                           ; preds = %while.end, %if.then25, %if.then
  %46 = load i32, ptr %retval, align 4
  ret i32 %46
}