; Function Attrs: nounwind sspstrong uwtable
define internal i32 @cor_co_preadv_part(ptr noundef readonly captures(none) %bs, i64 noundef %offset, i64 noundef %bytes, ptr noundef %qiov, i64 noundef %qiov_offset, i32 noundef %flags) #0 {
entry:
  %n = alloca i64, align 8
  %opaque = getelementptr inbounds nuw i8, ptr %bs, i64 24
  %0 = load ptr, ptr %opaque, align 8
  %1 = load ptr, ptr %0, align 8
  %tobool.not = icmp eq ptr %1, null
  br i1 %tobool.not, label %if.then, label %while.cond.preheader

while.cond.preheader:                             ; preds = %entry
  %tobool1.not23 = icmp eq i64 %bytes, 0
  br i1 %tobool1.not23, label %return, label %while.body.lr.ph

while.body.lr.ph:                                 ; preds = %while.cond.preheader
  %file2 = getelementptr inbounds nuw i8, ptr %bs, i64 16840
  br label %while.body

if.then:                                          ; preds = %entry
  %file = getelementptr inbounds nuw i8, ptr %bs, i64 16840
  %2 = load ptr, ptr %file, align 8
  %or = or i32 %flags, 1
  %call = tail call i32 @bdrv_co_preadv_part(ptr noundef %2, i64 noundef %offset, i64 noundef %bytes, ptr noundef %qiov, i64 noundef %qiov_offset, i32 noundef %or) #4
  br label %return

while.body:                                       ; preds = %while.body.lr.ph, %if.end27
  %offset.addr.026 = phi i64 [ %offset, %while.body.lr.ph ], [ %add, %if.end27 ]
  %qiov_offset.addr.025 = phi i64 [ %qiov_offset, %while.body.lr.ph ], [ %add28, %if.end27 ]
  %bytes.addr.024 = phi i64 [ %bytes, %while.body.lr.ph ], [ %sub, %if.end27 ]
  %3 = load ptr, ptr %file2, align 8
  %4 = load ptr, ptr %3, align 8
  %call4 = call i32 @bdrv_co_is_allocated(ptr noundef %4, i64 noundef %offset.addr.026, i64 noundef %bytes.addr.024, ptr noundef nonnull %n) #4
  %cmp = icmp slt i32 %call4, 1
  br i1 %cmp, label %if.then5, label %while.body.if.end19_crit_edge

while.body.if.end19_crit_edge:                    ; preds = %while.body
  %.pre29.pre = load i64, ptr %n, align 8
  br label %if.end19

if.then5:                                         ; preds = %while.body
  %5 = load ptr, ptr %file2, align 8
  %6 = load ptr, ptr %5, align 8
  %call8 = call ptr @bdrv_backing_chain_next(ptr noundef %6) #4
  %7 = load ptr, ptr %0, align 8
  %8 = load i64, ptr %n, align 8
  %call10 = call i32 @bdrv_co_is_allocated_above(ptr noundef %call8, ptr noundef %7, i1 noundef zeroext true, i64 noundef %offset.addr.026, i64 noundef %8, ptr noundef nonnull %n) #4
  %or.cond.not = icmp ne i32 %call10, 0
  %or14 = zext i1 %or.cond.not to i32
  %spec.select = or i32 %flags, %or14
  %9 = load i64, ptr %n, align 8
  %cmp16 = icmp eq i64 %9, 0
  br i1 %cmp16, label %return, label %if.end19

if.end19:                                         ; preds = %while.body.if.end19_crit_edge, %if.then5
  %.pre29 = phi i64 [ %9, %if.then5 ], [ %.pre29.pre, %while.body.if.end19_crit_edge ]
  %local_flags.0 = phi i32 [ %spec.select, %if.then5 ], [ %flags, %while.body.if.end19_crit_edge ]
  %and = and i32 %local_flags.0, 513
  %cmp20.not = icmp eq i32 %and, 512
  br i1 %cmp20.not, label %if.end27, label %if.then21

if.then21:                                        ; preds = %if.end19
  %10 = load ptr, ptr %file2, align 8
  %call23 = call i32 @bdrv_co_preadv_part(ptr noundef %10, i64 noundef %offset.addr.026, i64 noundef %.pre29, ptr noundef %qiov, i64 noundef %qiov_offset.addr.025, i32 noundef %local_flags.0) #4
  %cmp24 = icmp slt i32 %call23, 0
  br i1 %cmp24, label %return, label %if.then21.if.end27_crit_edge

if.then21.if.end27_crit_edge:                     ; preds = %if.then21
  %.pre = load i64, ptr %n, align 8
  br label %if.end27

if.end27:                                         ; preds = %if.then21.if.end27_crit_edge, %if.end19
  %11 = phi i64 [ %.pre, %if.then21.if.end27_crit_edge ], [ %.pre29, %if.end19 ]
  %add = add i64 %11, %offset.addr.026
  %add28 = add i64 %11, %qiov_offset.addr.025
  %sub = sub i64 %bytes.addr.024, %11
  %tobool1.not = icmp eq i64 %sub, 0
  br i1 %tobool1.not, label %return, label %while.body, !llvm.loop !5

return:                                           ; preds = %if.then21, %if.then5, %if.end27, %while.cond.preheader, %if.then
  %retval.0 = phi i32 [ %call, %if.then ], [ 0, %while.cond.preheader ], [ %call23, %if.then21 ], [ 0, %if.then5 ], [ 0, %if.end27 ]
  ret i32 %retval.0
}